target datalayout = "e-m:e-p270:32:32-p271:32:32-p272:64:64-i64:64-i128:128-f80:128-n8:16:32:64-S128"
target triple = "x86_64-pc-linux-gnu"

%struct.VariableStatData = type { ptr, ptr, ptr, ptr, i32, i32, i32, i8, i8 }
%struct.AttStatsSlot = type { i32, i32, i32, ptr, i32, ptr, i32, ptr, ptr }
%struct.FormData_pg_statistic = type { i32, i16, i8, float, i32, float, i16, i16, i16, i16, i16, i32, i32, i32, i32, i32, i32, i32, i32, i32, i32 }
%struct.HeapTupleData = type { i32, %struct.ItemPointerData, i32, ptr }
%struct.ItemPointerData = type { %struct.BlockIdData, i16 }
%struct.BlockIdData = type { i16, i16 }
%struct.HeapTupleHeaderData = type { %union.anon.4, %struct.ItemPointerData, i16, i16, i8, [0 x i8] }
%union.anon.4 = type { %struct.HeapTupleFields }
%struct.HeapTupleFields = type { i32, i32, %union.anon.5 }
%union.anon.5 = type { i32 }

@.str = private unnamed_addr constant [30 x i8] c"unrecognized booltesttype: %d\00", align 1
@.str.1 = private unnamed_addr constant [11 x i8] c"selfuncs.c\00", align 1
@__func__.booltestsel = private unnamed_addr constant [12 x i8] c"booltestsel\00", align 1

; Function Attrs: inlinehint nounwind uwtable
define internal zeroext i1 @DatumGetBool(i64 noundef %0) #1 {
  %2 = alloca i64, align 8
  store i64 %0, ptr %2, align 8
  %3 = load i64, ptr %2, align 8
  %4 = icmp ne i64 %3, 0
  ret i1 %4
}

; Function Attrs: inlinehint nounwind uwtable
define internal ptr @GETSTRUCT(ptr noundef %0) #1 {
  %2 = alloca ptr, align 8
  store ptr %0, ptr %2, align 8
  %3 = load ptr, ptr %2, align 8
  %4 = getelementptr inbounds nuw %struct.HeapTupleData, ptr %3, i32 0, i32 3
  %5 = load ptr, ptr %4, align 8
  %6 = load ptr, ptr %2, align 8
  %7 = getelementptr inbounds nuw %struct.HeapTupleData, ptr %6, i32 0, i32 3
  %8 = load ptr, ptr %7, align 8
  %9 = getelementptr inbounds nuw %struct.HeapTupleHeaderData, ptr %8, i32 0, i32 4
  %10 = load i8, ptr %9, align 2
  %11 = zext i8 %10 to i32
  %12 = sext i32 %11 to i64
  %13 = getelementptr inbounds i8, ptr %5, i64 %12
  ret ptr %13
}

; Function Attrs: nounwind uwtable
define dso_local double @booltestsel(ptr noundef %0, i32 noundef %1, ptr noundef %2, i32 noundef %3, i32 noundef %4, ptr noundef %5) #0 {
  %7 = alloca ptr, align 8
  %8 = alloca i32, align 4
  %9 = alloca ptr, align 8
  %10 = alloca i32, align 4
  %11 = alloca i32, align 4
  %12 = alloca ptr, align 8
  %13 = alloca %struct.VariableStatData, align 8
  %14 = alloca double, align 8
  %15 = alloca ptr, align 8
  %16 = alloca double, align 8
  %17 = alloca %struct.AttStatsSlot, align 8
  %18 = alloca double, align 8
  %19 = alloca double, align 8
  store ptr %0, ptr %7, align 8
  store i32 %1, ptr %8, align 4
  store ptr %2, ptr %9, align 8
  store i32 %3, ptr %10, align 4
  store i32 %4, ptr %11, align 4
  store ptr %5, ptr %12, align 8
  call void @llvm.lifetime.start.p0(i64 48, ptr %13) #10
  call void @llvm.lifetime.start.p0(i64 8, ptr %14) #10
  %20 = load ptr, ptr %7, align 8
  %21 = load ptr, ptr %9, align 8
  %22 = load i32, ptr %10, align 4
  call void @examine_variable(ptr noundef %20, ptr noundef %21, i32 noundef %22, ptr noundef %13)
  %23 = getelementptr inbounds nuw %struct.VariableStatData, ptr %13, i32 0, i32 2
  %24 = load ptr, ptr %23, align 8
  %25 = icmp ne ptr %24, null
  br i1 %25, label %26, label %125

26:                                               ; preds = %6
  call void @llvm.lifetime.start.p0(i64 8, ptr %15) #10
  call void @llvm.lifetime.start.p0(i64 8, ptr %16) #10
  call void @llvm.lifetime.start.p0(i64 64, ptr %17) #10
  %27 = getelementptr inbounds nuw %struct.VariableStatData, ptr %13, i32 0, i32 2
  %28 = load ptr, ptr %27, align 8
  %29 = call ptr @GETSTRUCT(ptr noundef %28)
  store ptr %29, ptr %15, align 8
  %30 = load ptr, ptr %15, align 8
  %31 = getelementptr inbounds nuw %struct.FormData_pg_statistic, ptr %30, i32 0, i32 3
  %32 = load float, ptr %31, align 4
  %33 = fpext float %32 to double
  store double %33, ptr %16, align 8
  %34 = getelementptr inbounds nuw %struct.VariableStatData, ptr %13, i32 0, i32 2
  %35 = load ptr, ptr %34, align 8
  %36 = call zeroext i1 @get_attstatsslot(ptr noundef %17, ptr noundef %35, i32 noundef 1, i32 noundef 0, i32 noundef 3)
  br i1 %36, label %37, label %96

37:                                               ; preds = %26
  %38 = getelementptr inbounds nuw %struct.AttStatsSlot, ptr %17, i32 0, i32 6
  %39 = load i32, ptr %38, align 8
  %40 = icmp sgt i32 %39, 0
  br i1 %40, label %41, label %96

41:                                               ; preds = %37
  call void @llvm.lifetime.start.p0(i64 8, ptr %18) #10
  call void @llvm.lifetime.start.p0(i64 8, ptr %19) #10
  %42 = getelementptr inbounds nuw %struct.AttStatsSlot, ptr %17, i32 0, i32 3
  %43 = load ptr, ptr %42, align 8
  %44 = getelementptr inbounds i64, ptr %43, i64 0
  %45 = load i64, ptr %44, align 8
  %46 = call zeroext i1 @DatumGetBool(i64 noundef %45)
  br i1 %46, label %47, label %53

47:                                               ; preds = %41
  %48 = getelementptr inbounds nuw %struct.AttStatsSlot, ptr %17, i32 0, i32 5
  %49 = load ptr, ptr %48, align 8
  %50 = getelementptr inbounds float, ptr %49, i64 0
  %51 = load float, ptr %50, align 4
  %52 = fpext float %51 to double
  store double %52, ptr %18, align 8
  br label %62

53:                                               ; preds = %41
  %54 = getelementptr inbounds nuw %struct.AttStatsSlot, ptr %17, i32 0, i32 5
  %55 = load ptr, ptr %54, align 8
  %56 = getelementptr inbounds float, ptr %55, i64 0
  %57 = load float, ptr %56, align 4
  %58 = fpext float %57 to double
  %59 = fsub double 1.000000e+00, %58
  %60 = load double, ptr %16, align 8
  %61 = fsub double %59, %60
  store double %61, ptr %18, align 8
  br label %62

62:                                               ; preds = %53, %47
  %63 = load double, ptr %18, align 8
  %64 = fsub double 1.000000e+00, %63
  %65 = load double, ptr %16, align 8
  %66 = fsub double %64, %65
  store double %66, ptr %19, align 8
  %67 = load i32, ptr %8, align 4
  switch i32 %67, label %83 [
    i32 4, label %68
    i32 5, label %70
    i32 0, label %73
    i32 1, label %75
    i32 2, label %78
    i32 3, label %80
  ]

68:                                               ; preds = %62
  %69 = load double, ptr %16, align 8
  store double %69, ptr %14, align 8
  br label %95

70:                                               ; preds = %62
  %71 = load double, ptr %16, align 8
  %72 = fsub double 1.000000e+00, %71
  store double %72, ptr %14, align 8
  br label %95

73:                                               ; preds = %62
  %74 = load double, ptr %18, align 8
  store double %74, ptr %14, align 8
  br label %95

75:                                               ; preds = %62
  %76 = load double, ptr %18, align 8
  %77 = fsub double 1.000000e+00, %76
  store double %77, ptr %14, align 8
  br label %95

78:                                               ; preds = %62
  %79 = load double, ptr %19, align 8
  store double %79, ptr %14, align 8
  br label %95

80:                                               ; preds = %62
  %81 = load double, ptr %19, align 8
  %82 = fsub double 1.000000e+00, %81
  store double %82, ptr %14, align 8
  br label %95

83:                                               ; preds = %62
  br label %84

84:                                               ; preds = %83
  br i1 true, label %85, label %87

85:                                               ; preds = %84
  %86 = call zeroext i1 @errstart_cold(i32 noundef 21, ptr noundef null) #11
  br i1 %86, label %89, label %92

87:                                               ; preds = %84
  %88 = call zeroext i1 @errstart(i32 noundef 21, ptr noundef null)
  br i1 %88, label %89, label %92

89:                                               ; preds = %87, %85
  %90 = load i32, ptr %8, align 4
  %91 = call i32 (ptr, ...) @errmsg_internal(ptr noundef @.str, i32 noundef %90)
  call void @errfinish(ptr noundef @.str.1, i32 noundef 1608, ptr noundef @__func__.booltestsel)
  br label %92

92:                                               ; preds = %89, %87, %85
  unreachable

93:                                               ; No predecessors!
  br label %94

94:                                               ; preds = %93
  store double 0.000000e+00, ptr %14, align 8
  br label %95

95:                                               ; preds = %94, %80, %78, %75, %73, %70, %68
  call void @free_attstatsslot(ptr noundef %17)
  call void @llvm.lifetime.end.p0(i64 8, ptr %19) #10
  call void @llvm.lifetime.end.p0(i64 8, ptr %18) #10
  br label %124

96:                                               ; preds = %37, %26
  %97 = load i32, ptr %8, align 4
  switch i32 %97, label %111 [
    i32 4, label %98
    i32 5, label %100
    i32 0, label %103
    i32 2, label %103
    i32 1, label %107
    i32 3, label %107
  ]

98:                                               ; preds = %96
  %99 = load double, ptr %16, align 8
  store double %99, ptr %14, align 8
  br label %123

100:                                              ; preds = %96
  %101 = load double, ptr %16, align 8
  %102 = fsub double 1.000000e+00, %101
  store double %102, ptr %14, align 8
  br label %123

103:                                              ; preds = %96, %96
  %104 = load double, ptr %16, align 8
  %105 = fsub double 1.000000e+00, %104
  %106 = fdiv double %105, 2.000000e+00
  store double %106, ptr %14, align 8
  br label %123

107:                                              ; preds = %96, %96
  %108 = load double, ptr %16, align 8
  %109 = fadd double %108, 1.000000e+00
  %110 = fdiv double %109, 2.000000e+00
  store double %110, ptr %14, align 8
  br label %123

111:                                              ; preds = %96
  br label %112

112:                                              ; preds = %111
  br i1 true, label %113, label %115

113:                                              ; preds = %112
  %114 = call zeroext i1 @errstart_cold(i32 noundef 21, ptr noundef null) #11
  br i1 %114, label %117, label %120

115:                                              ; preds = %112
  %116 = call zeroext i1 @errstart(i32 noundef 21, ptr noundef null)
  br i1 %116, label %117, label %120

117:                                              ; preds = %115, %113
  %118 = load i32, ptr %8, align 4
  %119 = call i32 (ptr, ...) @errmsg_internal(ptr noundef @.str, i32 noundef %118)
  call void @errfinish(ptr noundef @.str.1, i32 noundef 1645, ptr noundef @__func__.booltestsel)
  br label %120

120:                                              ; preds = %117, %115, %113
  unreachable

121:                                              ; No predecessors!
  br label %122

122:                                              ; preds = %121
  store double 0.000000e+00, ptr %14, align 8
  br label %123

123:                                              ; preds = %122, %107, %103, %100, %98
  br label %124

124:                                              ; preds = %123, %95
  call void @llvm.lifetime.end.p0(i64 64, ptr %17) #10
  call void @llvm.lifetime.end.p0(i64 8, ptr %16) #10
  call void @llvm.lifetime.end.p0(i64 8, ptr %15) #10
  br label %157

125:                                              ; preds = %6
  %126 = load i32, ptr %8, align 4
  switch i32 %126, label %144 [
    i32 4, label %127
    i32 5, label %128
    i32 0, label %129
    i32 3, label %129
    i32 2, label %136
    i32 1, label %136
  ]

127:                                              ; preds = %125
  store double 5.000000e-03, ptr %14, align 8
  br label %156

128:                                              ; preds = %125
  store double 0x3FEFD70A3D70A3D7, ptr %14, align 8
  br label %156

129:                                              ; preds = %125, %125
  %130 = load ptr, ptr %7, align 8
  %131 = load ptr, ptr %9, align 8
  %132 = load i32, ptr %10, align 4
  %133 = load i32, ptr %11, align 4
  %134 = load ptr, ptr %12, align 8
  %135 = call double @clause_selectivity(ptr noundef %130, ptr noundef %131, i32 noundef %132, i32 noundef %133, ptr noundef %134)
  store double %135, ptr %14, align 8
  br label %156

136:                                              ; preds = %125, %125
  %137 = load ptr, ptr %7, align 8
  %138 = load ptr, ptr %9, align 8
  %139 = load i32, ptr %10, align 4
  %140 = load i32, ptr %11, align 4
  %141 = load ptr, ptr %12, align 8
  %142 = call double @clause_selectivity(ptr noundef %137, ptr noundef %138, i32 noundef %139, i32 noundef %140, ptr noundef %141)
  %143 = fsub double 1.000000e+00, %142
  store double %143, ptr %14, align 8
  br label %156

144:                                              ; preds = %125
  br label %145

145:                                              ; preds = %144
  br i1 true, label %146, label %148

146:                                              ; preds = %145
  %147 = call zeroext i1 @errstart_cold(i32 noundef 21, ptr noundef null) #11
  br i1 %147, label %150, label %153

148:                                              ; preds = %145
  %149 = call zeroext i1 @errstart(i32 noundef 21, ptr noundef null)
  br i1 %149, label %150, label %153

150:                                              ; preds = %148, %146
  %151 = load i32, ptr %8, align 4
  %152 = call i32 (ptr, ...) @errmsg_internal(ptr noundef @.str, i32 noundef %151)
  call void @errfinish(ptr noundef @.str.1, i32 noundef 1681, ptr noundef @__func__.booltestsel)
  br label %153

153:                                              ; preds = %150, %148, %146
  unreachable

154:                                              ; No predecessors!
  br label %155

155:                                              ; preds = %154
  store double 0.000000e+00, ptr %14, align 8
  br label %156

156:                                              ; preds = %155, %136, %129, %128, %127
  br label %157

157:                                              ; preds = %156, %124
  br label %158

158:                                              ; preds = %157
  %159 = getelementptr inbounds nuw %struct.VariableStatData, ptr %13, i32 0, i32 2
  %160 = load ptr, ptr %159, align 8
  %161 = icmp ne ptr %160, null
  br i1 %161, label %162, label %167

162:                                              ; preds = %158
  %163 = getelementptr inbounds nuw %struct.VariableStatData, ptr %13, i32 0, i32 3
  %164 = load ptr, ptr %163, align 8
  %165 = getelementptr inbounds nuw %struct.VariableStatData, ptr %13, i32 0, i32 2
  %166 = load ptr, ptr %165, align 8
  call void %164(ptr noundef %166)
  br label %167

167:                                              ; preds = %162, %158
  br label %168

168:                                              ; preds = %167
  br label %169

169:                                              ; preds = %168
  br label %170

170:                                              ; preds = %169
  %171 = load double, ptr %14, align 8
  %172 = fcmp olt double %171, 0.000000e+00
  br i1 %172, label %173, label %174

173:                                              ; preds = %170
  store double 0.000000e+00, ptr %14, align 8
  br label %179

174:                                              ; preds = %170
  %175 = load double, ptr %14, align 8
  %176 = fcmp ogt double %175, 1.000000e+00
  br i1 %176, label %177, label %178

177:                                              ; preds = %174
  store double 1.000000e+00, ptr %14, align 8
  br label %178

178:                                              ; preds = %177, %174
  br label %179

179:                                              ; preds = %178, %173
  br label %180

180:                                              ; preds = %179
  br label %181

181:                                              ; preds = %180
  %182 = load double, ptr %14, align 8
  call void @llvm.lifetime.end.p0(i64 8, ptr %14) #10
  call void @llvm.lifetime.end.p0(i64 48, ptr %13) #10
  ret double %182
}