; Function Attrs: nounwind uwtable
define dso_local double @booltestsel(ptr noundef %0, i32 noundef %1, ptr noundef %2, i32 noundef %3, i32 noundef %4, ptr noundef %5) local_unnamed_addr #0 {
  %7 = alloca %struct.VariableStatData, align 8
  %8 = alloca %struct.AttStatsSlot, align 8
  call void @llvm.lifetime.start.p0(i64 48, ptr nonnull %7) #12
  call void @examine_variable(ptr noundef %0, ptr noundef %2, i32 noundef %3, ptr noundef nonnull %7)
  %9 = getelementptr inbounds nuw i8, ptr %7, i64 16
  %10 = load ptr, ptr %9, align 8
  %.not = icmp eq ptr %10, null
  br i1 %.not, label %60, label %11

11:                                               ; preds = %6
  call void @llvm.lifetime.start.p0(i64 64, ptr nonnull %8) #12
  %12 = getelementptr i8, ptr %10, i64 16
  %.val = load ptr, ptr %12, align 8
  %13 = getelementptr inbounds nuw i8, ptr %.val, i64 22
  %14 = load i8, ptr %13, align 2
  %15 = zext i8 %14 to i64
  %16 = getelementptr inbounds nuw i8, ptr %.val, i64 %15
  %17 = getelementptr inbounds nuw i8, ptr %16, i64 8
  %18 = load float, ptr %17, align 4
  %19 = fpext float %18 to double
  %20 = call zeroext i1 @get_attstatsslot(ptr noundef nonnull %8, ptr noundef nonnull %10, i32 noundef 1, i32 noundef 0, i32 noundef 3) #12
  %21 = getelementptr inbounds nuw i8, ptr %8, i64 40
  %22 = load i32, ptr %21, align 8
  %23 = icmp sgt i32 %22, 0
  %or.cond = select i1 %20, i1 %23, i1 false
  br i1 %or.cond, label %24, label %47

24:                                               ; preds = %11
  %25 = getelementptr inbounds nuw i8, ptr %8, i64 16
  %26 = load ptr, ptr %25, align 8
  %27 = load i64, ptr %26, align 8
  %.not49 = icmp eq i64 %27, 0
  %28 = getelementptr inbounds nuw i8, ptr %8, i64 32
  %29 = load ptr, ptr %28, align 8
  %30 = load float, ptr %29, align 4
  %31 = fpext float %30 to double
  %32 = fsub double 1.000000e+00, %31
  %33 = fsub double %32, %19
  %.037 = select i1 %.not49, double %33, double %31
  %34 = fsub double 1.000000e+00, %.037
  %35 = fsub double %34, %19
  switch i32 %1, label %43 [
    i32 4, label %46
    i32 5, label %36
    i32 0, label %38
    i32 1, label %39
    i32 2, label %40
    i32 3, label %41
  ]

36:                                               ; preds = %24
  %37 = fsub double 1.000000e+00, %19
  br label %46

38:                                               ; preds = %24
  br label %46

39:                                               ; preds = %24
  br label %46

40:                                               ; preds = %24
  br label %46

41:                                               ; preds = %24
  %42 = fsub double 1.000000e+00, %35
  br label %46

43:                                               ; preds = %24
  %44 = call zeroext i1 @errstart_cold(i32 noundef 21, ptr noundef null) #14
  call void @llvm.assume(i1 %44)
  %45 = call i32 (ptr, ...) @errmsg_internal(ptr noundef nonnull @.str, i32 noundef %1) #12
  call void @errfinish(ptr noundef nonnull @.str.1, i32 noundef 1608, ptr noundef nonnull @__func__.booltestsel) #12
  unreachable

46:                                               ; preds = %24, %41, %40, %39, %38, %36
  %.0 = phi double [ %42, %41 ], [ %35, %40 ], [ %34, %39 ], [ %.037, %38 ], [ %37, %36 ], [ %19, %24 ]
  call void @free_attstatsslot(ptr noundef nonnull %8) #12
  br label %59

47:                                               ; preds = %11
  switch i32 %1, label %56 [
    i32 4, label %59
    i32 5, label %48
    i32 0, label %50
    i32 2, label %50
    i32 1, label %53
    i32 3, label %53
  ]

48:                                               ; preds = %47
  %49 = fsub double 1.000000e+00, %19
  br label %59

50:                                               ; preds = %47, %47
  %51 = fsub double 1.000000e+00, %19
  %52 = fmul double %51, 5.000000e-01
  br label %59

53:                                               ; preds = %47, %47
  %54 = fadd double %19, 1.000000e+00
  %55 = fmul double %54, 5.000000e-01
  br label %59

56:                                               ; preds = %47
  %57 = call zeroext i1 @errstart_cold(i32 noundef 21, ptr noundef null) #14
  call void @llvm.assume(i1 %57)
  %58 = call i32 (ptr, ...) @errmsg_internal(ptr noundef nonnull @.str, i32 noundef %1) #12
  call void @errfinish(ptr noundef nonnull @.str.1, i32 noundef 1645, ptr noundef nonnull @__func__.booltestsel) #12
  unreachable

59:                                               ; preds = %47, %48, %50, %53, %46
  %.1 = phi double [ %.0, %46 ], [ %55, %53 ], [ %52, %50 ], [ %49, %48 ], [ %19, %47 ]
  call void @llvm.lifetime.end.p0(i64 64, ptr nonnull %8) #12
  br label %70

60:                                               ; preds = %6
  switch i32 %1, label %67 [
    i32 4, label %.thread47
    i32 5, label %61
    i32 0, label %62
    i32 3, label %62
    i32 2, label %64
    i32 1, label %64
  ]

61:                                               ; preds = %60
  br label %.thread47

62:                                               ; preds = %60, %60
  %63 = call double @clause_selectivity(ptr noundef %0, ptr noundef %2, i32 noundef %3, i32 noundef %4, ptr noundef %5) #12
  br label %70

64:                                               ; preds = %60, %60
  %65 = call double @clause_selectivity(ptr noundef %0, ptr noundef %2, i32 noundef %3, i32 noundef %4, ptr noundef %5) #12
  %66 = fsub double 1.000000e+00, %65
  br label %70

67:                                               ; preds = %60
  %68 = call zeroext i1 @errstart_cold(i32 noundef 21, ptr noundef null) #14
  call void @llvm.assume(i1 %68)
  %69 = call i32 (ptr, ...) @errmsg_internal(ptr noundef nonnull @.str, i32 noundef %1) #12
  call void @errfinish(ptr noundef nonnull @.str.1, i32 noundef 1681, ptr noundef nonnull @__func__.booltestsel) #12
  unreachable

70:                                               ; preds = %59, %64, %62
  %.2.ph = phi double [ %63, %62 ], [ %66, %64 ], [ %.1, %59 ]
  %.pr = load ptr, ptr %9, align 8
  %.not39 = icmp eq ptr %.pr, null
  br i1 %.not39, label %74, label %71

71:                                               ; preds = %70
  %72 = getelementptr inbounds nuw i8, ptr %7, i64 24
  %73 = load ptr, ptr %72, align 8
  call void %73(ptr noundef nonnull %.pr) #12
  br label %74

74:                                               ; preds = %70, %71
  %75 = fcmp olt double %.2.ph, 0.000000e+00
  br i1 %75, label %.thread47, label %76

76:                                               ; preds = %74
  %77 = fcmp ogt double %.2.ph, 1.000000e+00
  br i1 %77, label %78, label %.thread47

78:                                               ; preds = %76
  br label %.thread47

.thread47:                                        ; preds = %61, %60, %74, %76, %78
  %.3 = phi double [ 1.000000e+00, %78 ], [ %.2.ph, %76 ], [ 0.000000e+00, %74 ], [ 5.000000e-03, %60 ], [ 0x3FEFD70A3D70A3D7, %61 ]
  call void @llvm.lifetime.end.p0(i64 48, ptr nonnull %7) #12
  ret double %.3
}